target datalayout = "e-m:e-p270:32:32-p271:32:32-p272:64:64-i64:64-i128:128-f80:128-n8:16:32:64-S128"
target triple = "x86_64-pc-linux-gnu"

%struct.H5HF_hdr_t = type { %struct.H5C_cache_entry_t, i32, i32, i8, i8, i8, i8, %struct.H5HF_dtable_t, i64, i64, i32, i64, i64, %struct.H5O_pline_t, i64, i32, i64, i64, i64, i64, i64, i64, i64, i64, i64, i64, i64, i32, ptr, i64, i8, i8, i8, ptr, i32, ptr, %struct.H5HF_block_iter_t, ptr, i64, i8, i8, i64, i8, i8, i8, i8 }
%struct.H5C_cache_entry_t = type { ptr, i64, i64, ptr, i8, ptr, i8, i8, i8, i8, i32, i8, i8, i8, i8, i8, i32, ptr, i32, i32, i32, i32, i32, i8, i8, ptr, ptr, ptr, ptr, ptr, ptr, i8, i32, i8, i64, ptr, i64, i64, i32, i8, i32, i32, i8, ptr, ptr, ptr }
%struct.H5HF_dtable_t = type { %struct.H5HF_dtable_cparam_t, i64, i32, i32, i32, i32, i32, i32, i32, i64, ptr, ptr, ptr, ptr }
%struct.H5HF_dtable_cparam_t = type { i32, i64, i64, i32, i32 }
%struct.H5O_pline_t = type { %struct.H5O_shared_t, i32, i64, i64, ptr }
%struct.H5O_shared_t = type { i32, ptr, i32, %union.anon }
%union.anon = type { %struct.H5O_mesg_loc_t }
%struct.H5O_mesg_loc_t = type { i32, i64 }
%struct.H5HF_block_iter_t = type { i8, ptr }

@H5HF_init_g = external global i8, align 1
@H5_libterm_g = external global i8, align 1
@.str = private unnamed_addr constant [101 x i8] c"generated/home/dtcxzyw/WorkSpace/Projects/compilers/llvm-opt-benchmark/bench/hdf5/hdf5/src/H5HFhdr.c\00", align 1
@H5E_HEAP_g = external global i64, align 8
@__func__.H5HF__hdr_dirty = private unnamed_addr constant [16 x i8] c"H5HF__hdr_dirty\00", align 1
@H5E_CANTRESIZE_g = external global i64, align 8
@.str.24 = private unnamed_addr constant [37 x i8] c"unable to resize fractal heap header\00", align 1
@H5E_CANTMARKDIRTY_g = external global i64, align 8
@.str.25 = private unnamed_addr constant [44 x i8] c"unable to mark fractal heap header as dirty\00", align 1
@__func__.H5HF__hdr_adj_free = private unnamed_addr constant [19 x i8] c"H5HF__hdr_adj_free\00", align 1
@H5E_CANTDIRTY_g = external global i64, align 8
@.str.26 = private unnamed_addr constant [32 x i8] c"can't mark heap header as dirty\00", align 1

; Function Attrs: nounwind uwtable
define i32 @H5HF__hdr_dirty(ptr noundef %0) #0 {
  %2 = alloca ptr, align 8
  %3 = alloca i32, align 4
  %4 = alloca i8, align 1
  store ptr %0, ptr %2, align 8, !tbaa !8
  call void @llvm.lifetime.start.p0(i64 4, ptr %3) #7
  store i32 0, ptr %3, align 4, !tbaa !38
  call void @llvm.lifetime.start.p0(i64 1, ptr %4) #7
  store i8 0, ptr %4, align 1, !tbaa !10
  %5 = load i8, ptr @H5HF_init_g, align 1, !tbaa !10, !range !12, !noundef !13
  %6 = trunc i8 %5 to i1
  br i1 %6, label %11, label %7

7:                                                ; preds = %1
  %8 = load i8, ptr @H5_libterm_g, align 1, !tbaa !10, !range !12, !noundef !13
  %9 = trunc i8 %8 to i1
  %10 = xor i1 %9, true
  br label %11

11:                                               ; preds = %7, %1
  %12 = phi i1 [ true, %1 ], [ %10, %7 ]
  %13 = xor i1 %12, true
  %14 = xor i1 %13, true
  %15 = zext i1 %14 to i32
  %16 = sext i32 %15 to i64
  %17 = call i64 @llvm.expect.i64(i64 %16, i64 1)
  %18 = icmp ne i64 %17, 0
  br i1 %18, label %19, label %76

19:                                               ; preds = %11
  %20 = load ptr, ptr %2, align 8, !tbaa !8
  %21 = getelementptr inbounds nuw %struct.H5HF_hdr_t, ptr %20, i32 0, i32 2
  %22 = load i32, ptr %21, align 4, !tbaa !65
  %23 = icmp ugt i32 %22, 0
  br i1 %23, label %24, label %51

24:                                               ; preds = %19
  %25 = load ptr, ptr %2, align 8, !tbaa !8
  %26 = load ptr, ptr %2, align 8, !tbaa !8
  %27 = getelementptr inbounds nuw %struct.H5HF_hdr_t, ptr %26, i32 0, i32 26
  %28 = load i64, ptr %27, align 8, !tbaa !66
  %29 = call i32 @H5AC_resize_entry(ptr noundef %25, i64 noundef %28)
  %30 = icmp slt i32 %29, 0
  br i1 %30, label %31, label %50

31:                                               ; preds = %24
  br label %32

32:                                               ; preds = %31
  br label %33

33:                                               ; preds = %32
  br label %34

34:                                               ; preds = %33
  %35 = load i64, ptr @H5E_HEAP_g, align 8, !tbaa !14
  %36 = load i64, ptr @H5E_CANTRESIZE_g, align 8, !tbaa !14
  %37 = call i32 (ptr, ptr, i32, i64, i64, ptr, ...) @H5E_printf_stack(ptr noundef @.str, ptr noundef @__func__.H5HF__hdr_dirty, i32 noundef 661, i64 noundef %35, i64 noundef %36, ptr noundef @.str.24)
  br label %38

38:                                               ; preds = %34
  br label %39

39:                                               ; preds = %38
  store i8 1, ptr %4, align 1, !tbaa !10
  %40 = load i8, ptr %4, align 1, !tbaa !10, !range !12, !noundef !13
  %41 = trunc i8 %40 to i1
  %42 = zext i1 %41 to i8
  store i8 %42, ptr %4, align 1, !tbaa !10
  br label %43

43:                                               ; preds = %39
  br label %44

44:                                               ; preds = %43
  br label %45

45:                                               ; preds = %44
  store i32 -1, ptr %3, align 4, !tbaa !38
  br label %75

46:                                               ; No predecessors!
  br label %47

47:                                               ; preds = %46
  br label %48

48:                                               ; preds = %47
  br label %49

49:                                               ; preds = %48
  br label %50

50:                                               ; preds = %49, %24
  br label %51

51:                                               ; preds = %50, %19
  %52 = load ptr, ptr %2, align 8, !tbaa !8
  %53 = call i32 @H5AC_mark_entry_dirty(ptr noundef %52)
  %54 = icmp slt i32 %53, 0
  br i1 %54, label %55, label %74

55:                                               ; preds = %51
  br label %56

56:                                               ; preds = %55
  br label %57

57:                                               ; preds = %56
  br label %58

58:                                               ; preds = %57
  %59 = load i64, ptr @H5E_HEAP_g, align 8, !tbaa !14
  %60 = load i64, ptr @H5E_CANTMARKDIRTY_g, align 8, !tbaa !14
  %61 = call i32 (ptr, ptr, i32, i64, i64, ptr, ...) @H5E_printf_stack(ptr noundef @.str, ptr noundef @__func__.H5HF__hdr_dirty, i32 noundef 665, i64 noundef %59, i64 noundef %60, ptr noundef @.str.25)
  br label %62

62:                                               ; preds = %58
  br label %63

63:                                               ; preds = %62
  store i8 1, ptr %4, align 1, !tbaa !10
  %64 = load i8, ptr %4, align 1, !tbaa !10, !range !12, !noundef !13
  %65 = trunc i8 %64 to i1
  %66 = zext i1 %65 to i8
  store i8 %66, ptr %4, align 1, !tbaa !10
  br label %67

67:                                               ; preds = %63
  br label %68

68:                                               ; preds = %67
  br label %69

69:                                               ; preds = %68
  store i32 -1, ptr %3, align 4, !tbaa !38
  br label %75

70:                                               ; No predecessors!
  br label %71

71:                                               ; preds = %70
  br label %72

72:                                               ; preds = %71
  br label %73

73:                                               ; preds = %72
  br label %74

74:                                               ; preds = %73, %51
  br label %75

75:                                               ; preds = %74, %69, %45
  br label %76

76:                                               ; preds = %75, %11
  %77 = load i32, ptr %3, align 4, !tbaa !38
  call void @llvm.lifetime.end.p0(i64 1, ptr %4) #7
  call void @llvm.lifetime.end.p0(i64 4, ptr %3) #7
  ret i32 %77
}

; Function Attrs: nounwind uwtable
define i32 @H5HF__hdr_adj_free(ptr noundef %0, i64 noundef %1) #0 {
  %3 = alloca ptr, align 8
  %4 = alloca i64, align 8
  %5 = alloca i32, align 4
  %6 = alloca i8, align 1
  store ptr %0, ptr %3, align 8, !tbaa !8
  store i64 %1, ptr %4, align 8, !tbaa !14
  call void @llvm.lifetime.start.p0(i64 4, ptr %5) #7
  store i32 0, ptr %5, align 4, !tbaa !38
  call void @llvm.lifetime.start.p0(i64 1, ptr %6) #7
  store i8 0, ptr %6, align 1, !tbaa !10
  %7 = load i8, ptr @H5HF_init_g, align 1, !tbaa !10, !range !12, !noundef !13
  %8 = trunc i8 %7 to i1
  br i1 %8, label %13, label %9

9:                                                ; preds = %2
  %10 = load i8, ptr @H5_libterm_g, align 1, !tbaa !10, !range !12, !noundef !13
  %11 = trunc i8 %10 to i1
  %12 = xor i1 %11, true
  br label %13

13:                                               ; preds = %9, %2
  %14 = phi i1 [ true, %2 ], [ %12, %9 ]
  %15 = xor i1 %14, true
  %16 = xor i1 %15, true
  %17 = zext i1 %16 to i32
  %18 = sext i32 %17 to i64
  %19 = call i64 @llvm.expect.i64(i64 %18, i64 1)
  %20 = icmp ne i64 %19, 0
  br i1 %20, label %21, label %53

21:                                               ; preds = %13
  %22 = load ptr, ptr %3, align 8, !tbaa !8
  %23 = getelementptr inbounds nuw %struct.H5HF_hdr_t, ptr %22, i32 0, i32 8
  %24 = load i64, ptr %23, align 8, !tbaa !76
  %25 = load i64, ptr %4, align 8, !tbaa !14
  %26 = add nsw i64 %24, %25
  %27 = load ptr, ptr %3, align 8, !tbaa !8
  %28 = getelementptr inbounds nuw %struct.H5HF_hdr_t, ptr %27, i32 0, i32 8
  store i64 %26, ptr %28, align 8, !tbaa !76
  %29 = load ptr, ptr %3, align 8, !tbaa !8
  %30 = call i32 @H5HF__hdr_dirty(ptr noundef %29)
  %31 = icmp slt i32 %30, 0
  br i1 %31, label %32, label %51

32:                                               ; preds = %21
  br label %33

33:                                               ; preds = %32
  br label %34

34:                                               ; preds = %33
  br label %35

35:                                               ; preds = %34
  %36 = load i64, ptr @H5E_HEAP_g, align 8, !tbaa !14
  %37 = load i64, ptr @H5E_CANTDIRTY_g, align 8, !tbaa !14
  %38 = call i32 (ptr, ptr, i32, i64, i64, ptr, ...) @H5E_printf_stack(ptr noundef @.str, ptr noundef @__func__.H5HF__hdr_adj_free, i32 noundef 698, i64 noundef %36, i64 noundef %37, ptr noundef @.str.26)
  br label %39

39:                                               ; preds = %35
  br label %40

40:                                               ; preds = %39
  store i8 1, ptr %6, align 1, !tbaa !10
  %41 = load i8, ptr %6, align 1, !tbaa !10, !range !12, !noundef !13
  %42 = trunc i8 %41 to i1
  %43 = zext i1 %42 to i8
  store i8 %43, ptr %6, align 1, !tbaa !10
  br label %44

44:                                               ; preds = %40
  br label %45

45:                                               ; preds = %44
  br label %46

46:                                               ; preds = %45
  store i32 -1, ptr %5, align 4, !tbaa !38
  br label %52

47:                                               ; No predecessors!
  br label %48

48:                                               ; preds = %47
  br label %49

49:                                               ; preds = %48
  br label %50

50:                                               ; preds = %49
  br label %51

51:                                               ; preds = %50, %21
  br label %52

52:                                               ; preds = %51, %46
  br label %53

53:                                               ; preds = %52, %13
  %54 = load i32, ptr %5, align 4, !tbaa !38
  call void @llvm.lifetime.end.p0(i64 1, ptr %6) #7
  call void @llvm.lifetime.end.p0(i64 4, ptr %5) #7
  ret i32 %54
}