; Function Attrs: nounwind uwtable
define range(i32 -1, 1) i32 @H5HF__hdr_adj_free(ptr noundef %0, i64 noundef %1) local_unnamed_addr #0 {
  %3 = load i8, ptr @H5HF_init_g, align 1, !tbaa !3, !range !7, !noundef !8
  %4 = trunc nuw i8 %3 to i1
  %5 = load i8, ptr @H5_libterm_g, align 1, !range !7
  %6 = trunc nuw i8 %5 to i1
  %7 = xor i1 %6, true
  %8 = select i1 %4, i1 true, i1 %7
  br i1 %8, label %9, label %H5HF__hdr_dirty.exit, !prof !9

9:                                                ; preds = %2
  %10 = getelementptr inbounds nuw i8, ptr %0, i64 376
  %11 = load i64, ptr %10, align 8, !tbaa !72
  %12 = add nsw i64 %11, %1
  store i64 %12, ptr %10, align 8, !tbaa !72
  %13 = getelementptr inbounds nuw i8, ptr %0, i64 252
  %14 = load i32, ptr %13, align 4, !tbaa !61
  %.not.i = icmp eq i32 %14, 0
  br i1 %.not.i, label %24, label %15

15:                                               ; preds = %9
  %16 = getelementptr inbounds nuw i8, ptr %0, i64 584
  %17 = load i64, ptr %16, align 8, !tbaa !62
  %18 = tail call i32 @H5AC_resize_entry(ptr noundef nonnull %0, i64 noundef %17) #7
  %19 = icmp slt i32 %18, 0
  br i1 %19, label %20, label %24

20:                                               ; preds = %15
  %21 = load i64, ptr @H5E_HEAP_g, align 8, !tbaa !10
  %22 = load i64, ptr @H5E_CANTRESIZE_g, align 8, !tbaa !10
  %23 = tail call i32 (ptr, ptr, i32, i64, i64, ptr, ...) @H5E_printf_stack(ptr noundef nonnull @.str, ptr noundef nonnull @__func__.H5HF__hdr_dirty, i32 noundef 661, i64 noundef %21, i64 noundef %22, ptr noundef nonnull @.str.24) #7
  br label %31

24:                                               ; preds = %15, %9
  %25 = tail call i32 @H5AC_mark_entry_dirty(ptr noundef nonnull %0) #7
  %26 = icmp slt i32 %25, 0
  br i1 %26, label %27, label %H5HF__hdr_dirty.exit

27:                                               ; preds = %24
  %28 = load i64, ptr @H5E_HEAP_g, align 8, !tbaa !10
  %29 = load i64, ptr @H5E_CANTMARKDIRTY_g, align 8, !tbaa !10
  %30 = tail call i32 (ptr, ptr, i32, i64, i64, ptr, ...) @H5E_printf_stack(ptr noundef nonnull @.str, ptr noundef nonnull @__func__.H5HF__hdr_dirty, i32 noundef 665, i64 noundef %28, i64 noundef %29, ptr noundef nonnull @.str.25) #7
  br label %31

31:                                               ; preds = %20, %27
  %32 = load i64, ptr @H5E_HEAP_g, align 8, !tbaa !10
  %33 = load i64, ptr @H5E_CANTDIRTY_g, align 8, !tbaa !10
  %34 = tail call i32 (ptr, ptr, i32, i64, i64, ptr, ...) @H5E_printf_stack(ptr noundef nonnull @.str, ptr noundef nonnull @__func__.H5HF__hdr_adj_free, i32 noundef 698, i64 noundef %32, i64 noundef %33, ptr noundef nonnull @.str.26) #7
  br label %H5HF__hdr_dirty.exit

H5HF__hdr_dirty.exit:                             ; preds = %24, %31, %2
  %.0 = phi i32 [ -1, %31 ], [ 0, %2 ], [ 0, %24 ]
  ret i32 %.0
}